; Function Attrs: mustprogress nofree norecurse nosync nounwind willreturn memory(read, argmem: write, inaccessiblemem: none) uwtable
define dso_local void @_ZN4Luau18CstGenericTypePackC2ENS_8PositionESt8optionalIS1_E(ptr noundef nonnull writeonly align 4 captures(none) dereferenceable(24) initializes((0, 21)) %0, i64 %1, i64 %2, i8 %3) unnamed_addr #4 align 2 {
  %5 = load i32, ptr @_ZN4Luau7CstRttiINS_18CstGenericTypePackEE5valueE, align 4, !tbaa !4
  store i32 %5, ptr %0, align 4, !tbaa !8
  %6 = getelementptr inbounds nuw i8, ptr %0, i64 4
  store i64 %1, ptr %6, align 4
  %7 = getelementptr inbounds nuw i8, ptr %0, i64 12
  store i64 %2, ptr %7, align 4
  %.sroa.22.0..sroa_idx = getelementptr inbounds nuw i8, ptr %0, i64 20
  store i8 %3, ptr %.sroa.22.0..sroa_idx, align 4
  ret void
}